; Function Attrs: mustprogress nofree norecurse nosync nounwind willreturn memory(argmem: read) uwtable
define hidden noundef zeroext i1 @_ZN4cvc58internal6theory11quantifiers11QuantDSplit10needsCheckENS1_6Theory6EffortE(ptr nocapture noundef nonnull readonly align 8 dereferenceable(152) %this, i32 noundef %e) unnamed_addr #6 align 2 {
entry:
  %cmp = icmp sgt i32 %e, 99
  %_M_node_count.i.i = getelementptr inbounds i8, ptr %this, i64 88
  %0 = load i64, ptr %_M_node_count.i.i, align 8
  %cmp.i.i = icmp ne i64 %0, 0
  %1 = select i1 %cmp, i1 %cmp.i.i, i1 false
  ret i1 %1
}